; ModuleID = 'source-C-CXX/60/591.c'
source_filename = "source-C-CXX/60/591.c"
target datalayout = "e-m:e-p270:32:32-p271:32:32-p272:64:64-i64:64-f80:128-n8:16:32:64-S128"
target triple = "x86_64-pc-linux-gnu"

@.str = private unnamed_addr constant [3 x i8] c"%d\00", align 1
@.str.1 = private unnamed_addr constant [4 x i8] c"%d\0A\00", align 1

; Function Attrs: nofree nosync nounwind readnone sspstrong uwtable
define dso_local i32 @F(i32 %0) local_unnamed_addr #0 {
  %2 = alloca [25 x i32], align 16
  %3 = bitcast [25 x i32]* %2 to i8*
  call void @llvm.lifetime.start.p0i8(i64 100, i8* nonnull %3) #4
  %4 = getelementptr inbounds [25 x i32], [25 x i32]* %2, i64 0, i64 1
  store i32 1, i32* %4, align 4, !tbaa !5
  %5 = getelementptr inbounds [25 x i32], [25 x i32]* %2, i64 0, i64 2
  store i32 1, i32* %5, align 8, !tbaa !5
  %6 = icmp slt i32 %0, 3
  br i1 %6, label %18, label %7

7:                                                ; preds = %1
  %8 = getelementptr inbounds [25 x i32], [25 x i32]* %2, i64 0, i64 3
  %9 = bitcast i32* %8 to <4 x i32>*
  store <4 x i32> <i32 2, i32 3, i32 5, i32 8>, <4 x i32>* %9, align 4, !tbaa !5
  %10 = getelementptr inbounds [25 x i32], [25 x i32]* %2, i64 0, i64 7
  %11 = bitcast i32* %10 to <4 x i32>*
  store <4 x i32> <i32 13, i32 21, i32 34, i32 55>, <4 x i32>* %11, align 4, !tbaa !5
  %12 = getelementptr inbounds [25 x i32], [25 x i32]* %2, i64 0, i64 11
  %13 = bitcast i32* %12 to <4 x i32>*
  store <4 x i32> <i32 89, i32 144, i32 233, i32 377>, <4 x i32>* %13, align 4, !tbaa !5
  %14 = getelementptr inbounds [25 x i32], [25 x i32]* %2, i64 0, i64 15
  %15 = bitcast i32* %14 to <4 x i32>*
  store <4 x i32> <i32 610, i32 987, i32 1597, i32 2584>, <4 x i32>* %15, align 4, !tbaa !5
  %16 = getelementptr inbounds [25 x i32], [25 x i32]* %2, i64 0, i64 19
  store i32 4181, i32* %16, align 4, !tbaa !5
  %17 = getelementptr inbounds [25 x i32], [25 x i32]* %2, i64 0, i64 20
  store i32 6765, i32* %17, align 16, !tbaa !5
  br label %18

18:                                               ; preds = %7, %1
  %19 = sext i32 %0 to i64
  %20 = getelementptr inbounds [25 x i32], [25 x i32]* %2, i64 0, i64 %19
  %21 = load i32, i32* %20, align 4, !tbaa !5
  call void @llvm.lifetime.end.p0i8(i64 100, i8* nonnull %3) #4
  ret i32 %21
}

; Function Attrs: argmemonly mustprogress nofree nosync nounwind willreturn
declare void @llvm.lifetime.start.p0i8(i64 immarg, i8* nocapture) #1

; Function Attrs: argmemonly mustprogress nofree nosync nounwind willreturn
declare void @llvm.lifetime.end.p0i8(i64 immarg, i8* nocapture) #1

; Function Attrs: nofree nounwind sspstrong uwtable
define dso_local i32 @main() local_unnamed_addr #2 {
  %1 = alloca [25 x i32], align 16
  %2 = alloca i32, align 4
  %3 = alloca i32, align 4
  %4 = bitcast i32* %2 to i8*
  call void @llvm.lifetime.start.p0i8(i64 4, i8* nonnull %4) #4
  %5 = bitcast i32* %3 to i8*
  call void @llvm.lifetime.start.p0i8(i64 4, i8* nonnull %5) #4
  %6 = call i32 (i8*, ...) @__isoc99_scanf(i8* getelementptr inbounds ([3 x i8], [3 x i8]* @.str, i64 0, i64 0), i32* nonnull %2)
  %7 = bitcast [25 x i32]* %1 to i8*
  %8 = getelementptr inbounds [25 x i32], [25 x i32]* %1, i64 0, i64 1
  %9 = getelementptr inbounds [25 x i32], [25 x i32]* %1, i64 0, i64 2
  %10 = getelementptr inbounds [25 x i32], [25 x i32]* %1, i64 0, i64 3
  %11 = getelementptr inbounds [25 x i32], [25 x i32]* %1, i64 0, i64 7
  %12 = getelementptr inbounds [25 x i32], [25 x i32]* %1, i64 0, i64 11
  %13 = getelementptr inbounds [25 x i32], [25 x i32]* %1, i64 0, i64 15
  %14 = getelementptr inbounds [25 x i32], [25 x i32]* %1, i64 0, i64 19
  %15 = getelementptr inbounds [25 x i32], [25 x i32]* %1, i64 0, i64 20
  %16 = load i32, i32* %2, align 4, !tbaa !5
  %17 = icmp sgt i32 %16, 0
  br i1 %17, label %18, label %37

18:                                               ; preds = %0
  %19 = bitcast i32* %10 to <4 x i32>*
  %20 = bitcast i32* %11 to <4 x i32>*
  %21 = bitcast i32* %12 to <4 x i32>*
  %22 = bitcast i32* %13 to <4 x i32>*
  br label %23

23:                                               ; preds = %18, %29
  %24 = phi i32 [ %34, %29 ], [ 0, %18 ]
  %25 = call i32 (i8*, ...) @__isoc99_scanf(i8* getelementptr inbounds ([3 x i8], [3 x i8]* @.str, i64 0, i64 0), i32* nonnull %3)
  %26 = load i32, i32* %3, align 4, !tbaa !5
  call void @llvm.lifetime.start.p0i8(i64 100, i8* nonnull %7) #4
  store i32 1, i32* %8, align 4, !tbaa !5
  store i32 1, i32* %9, align 8, !tbaa !5
  %27 = icmp slt i32 %26, 3
  br i1 %27, label %29, label %28

28:                                               ; preds = %23
  store <4 x i32> <i32 2, i32 3, i32 5, i32 8>, <4 x i32>* %19, align 4, !tbaa !5
  store <4 x i32> <i32 13, i32 21, i32 34, i32 55>, <4 x i32>* %20, align 4, !tbaa !5
  store <4 x i32> <i32 89, i32 144, i32 233, i32 377>, <4 x i32>* %21, align 4, !tbaa !5
  store <4 x i32> <i32 610, i32 987, i32 1597, i32 2584>, <4 x i32>* %22, align 4, !tbaa !5
  store i32 4181, i32* %14, align 4, !tbaa !5
  store i32 6765, i32* %15, align 16, !tbaa !5
  br label %29

29:                                               ; preds = %23, %28
  %30 = sext i32 %26 to i64
  %31 = getelementptr inbounds [25 x i32], [25 x i32]* %1, i64 0, i64 %30
  %32 = load i32, i32* %31, align 4, !tbaa !5
  call void @llvm.lifetime.end.p0i8(i64 100, i8* nonnull %7) #4
  %33 = call i32 (i8*, ...) @printf(i8* nonnull dereferenceable(1) getelementptr inbounds ([4 x i8], [4 x i8]* @.str.1, i64 0, i64 0), i32 %32)
  %34 = add nuw nsw i32 %24, 1
  %35 = load i32, i32* %2, align 4, !tbaa !5
  %36 = icmp slt i32 %34, %35
  br i1 %36, label %23, label %37, !llvm.loop !9

37:                                               ; preds = %29, %0
  call void @llvm.lifetime.end.p0i8(i64 4, i8* nonnull %5) #4
  call void @llvm.lifetime.end.p0i8(i64 4, i8* nonnull %4) #4
  ret i32 0
}

; Function Attrs: nofree nounwind
declare noundef i32 @__isoc99_scanf(i8* nocapture noundef readonly, ...) local_unnamed_addr #3

; Function Attrs: nofree nounwind
declare noundef i32 @printf(i8* nocapture noundef readonly, ...) local_unnamed_addr #3


!llvm.module.flags = !{!0, !1, !2, !3}
!llvm.ident = !{!4}

!0 = !{i32 1, !"wchar_size", i32 4}
!1 = !{i32 7, !"PIC Level", i32 2}
!2 = !{i32 7, !"PIE Level", i32 2}
!3 = !{i32 7, !"uwtable", i32 1}
!4 = !{!"clang version 13.0.0"}
!5 = !{!6, !6, i64 0}
!6 = !{!"int", !7, i64 0}
!7 = !{!"omnipotent char", !8, i64 0}
!8 = !{!"Simple C/C++ TBAA"}
!9 = distinct !{!9, !10}
!10 = !{!"llvm.loop.mustprogress"}
